; Function Attrs: mustprogress uwtable
define void @_ZN3vcg9Trackball12ApplyInverseEv(ptr noundef nonnull align 8 dereferenceable(597) %0) local_unnamed_addr #15 align 2 personality ptr @__gxx_personality_v0 {
  %2 = alloca %"class.vcg::Matrix44", align 4
  %3 = alloca %"class.vcg::Matrix44", align 4
  %4 = alloca %"class.vcg::Matrix44", align 4
  %5 = getelementptr inbounds i8, ptr %0, i64 32
  %6 = load float, ptr %5, align 8
  %7 = getelementptr inbounds i8, ptr %0, i64 36
  %8 = load float, ptr %7, align 4
  %9 = getelementptr inbounds i8, ptr %0, i64 40
  %10 = load float, ptr %9, align 8
  tail call void @glTranslatef(float noundef %6, float noundef %8, float noundef %10)
  call void @llvm.lifetime.start.p0(i64 64, ptr nonnull %3)
  call void @_ZNK3vcg10SimilarityIfNS_10QuaternionIfEEE6MatrixEv(ptr dead_on_unwind nonnull writable sret(%"class.vcg::Matrix44") align 4 %3, ptr noundef nonnull align 4 dereferenceable(32) %0), !noalias !42
  call void @_ZN3vcg7InverseIfEENS_8Matrix44IT_EERKS3_(ptr dead_on_unwind nonnull writable sret(%"class.vcg::Matrix44") align 4 %4, ptr noundef nonnull align 4 dereferenceable(64) %3)
  call void @llvm.lifetime.end.p0(i64 64, ptr nonnull %3)
  call void @llvm.lifetime.start.p0(i64 64, ptr nonnull %2)
  call void @llvm.memcpy.p0.p0.i64(ptr noundef nonnull align 4 dereferenceable(64) %2, ptr noundef nonnull align 4 dereferenceable(64) %4, i64 64, i1 false)
  br label %.preheader.i.i.i

.preheader.i.i.i:                                 ; preds = %20, %1
  %indvars.iv15.i.i.i = phi i64 [ 1, %1 ], [ %indvars.iv.next16.i.i.i, %20 ]
  %11 = shl nuw nsw i64 %indvars.iv15.i.i.i, 2
  br label %12

12:                                               ; preds = %12, %.preheader.i.i.i
  %indvars.iv.i.i.i = phi i64 [ 0, %.preheader.i.i.i ], [ %indvars.iv.next.i.i.i, %12 ]
  %13 = add nuw nsw i64 %indvars.iv.i.i.i, %11
  %14 = getelementptr inbounds [16 x float], ptr %2, i64 0, i64 %13
  %15 = shl i64 %indvars.iv.i.i.i, 2
  %16 = add nuw nsw i64 %15, %indvars.iv15.i.i.i
  %17 = getelementptr inbounds [16 x float], ptr %2, i64 0, i64 %16
  %18 = load float, ptr %14, align 4, !alias.scope !45
  %19 = load float, ptr %17, align 4, !alias.scope !45
  store float %19, ptr %14, align 4, !alias.scope !45
  store float %18, ptr %17, align 4, !alias.scope !45
  %indvars.iv.next.i.i.i = add nuw nsw i64 %indvars.iv.i.i.i, 1
  %exitcond.not.i.i.i = icmp eq i64 %indvars.iv.next.i.i.i, %indvars.iv15.i.i.i
  br i1 %exitcond.not.i.i.i, label %20, label %12, !llvm.loop !18

20:                                               ; preds = %12
  %indvars.iv.next16.i.i.i = add nuw nsw i64 %indvars.iv15.i.i.i, 1
  %exitcond18.not.i.i.i = icmp eq i64 %indvars.iv.next16.i.i.i, 4
  br i1 %exitcond18.not.i.i.i, label %_ZNK3vcg8Matrix44IfE9transposeEv.exit.i, label %.preheader.i.i.i, !llvm.loop !19

_ZNK3vcg8Matrix44IfE9transposeEv.exit.i:          ; preds = %20
  call void @glMultMatrixf(ptr noundef nonnull %2)
  call void @llvm.lifetime.end.p0(i64 64, ptr nonnull %2)
  %21 = load float, ptr %5, align 8
  %22 = fneg float %21
  %23 = load float, ptr %7, align 4
  %24 = fneg float %23
  %25 = load float, ptr %9, align 8
  %26 = fneg float %25
  call void @glTranslatef(float noundef %22, float noundef %24, float noundef %26)
  ret void
}